target datalayout = "e-m:e-p270:32:32-p271:32:32-p272:64:64-i64:64-i128:128-f80:128-n8:16:32:64-S128"
target triple = "x86_64-unknown-linux-gnu"

%"class.hermes::vm::HermesValue" = type { i64 }
%"class.facebook::hermes::HermesRuntimeImpl" = type <{ %"class.facebook::hermes::HermesRuntime", %"class.facebook::jsi::Instrumentation", %"class.facebook::hermes::HermesRuntimeImpl::ManagedValues", %"class.facebook::hermes::HermesRuntimeImpl::ManagedValues.1", %"class.std::shared_ptr", ptr, %"class.std::unique_ptr", i32, %"struct.hermes::hbc::CompileFlags", i8, [7 x i8] }>
%"class.facebook::hermes::HermesRuntime" = type { %"class.facebook::jsi::Runtime" }
%"class.facebook::jsi::Runtime" = type { ptr }
%"class.facebook::jsi::Instrumentation" = type { ptr }
%"class.facebook::hermes::HermesRuntimeImpl::ManagedValues" = type { %"class.hermes::ManagedChunkedList" }
%"class.hermes::ManagedChunkedList" = type { ptr, i64, %"class.hermes::ExponentialMovingAverage", ptr, double }
%"class.hermes::ExponentialMovingAverage" = type { double, double }
%"class.facebook::hermes::HermesRuntimeImpl::ManagedValues.1" = type { %"class.hermes::ManagedChunkedList.2" }
%"class.hermes::ManagedChunkedList.2" = type { ptr, i64, %"class.hermes::ExponentialMovingAverage", ptr, double }
%"class.std::shared_ptr" = type { %"class.std::__shared_ptr" }
%"class.std::__shared_ptr" = type { ptr, %"class.std::__shared_count" }
%"class.std::__shared_count" = type { ptr }
%"class.std::unique_ptr" = type { %"struct.std::__uniq_ptr_data" }
%"struct.std::__uniq_ptr_data" = type { %"class.std::__uniq_ptr_impl" }
%"class.std::__uniq_ptr_impl" = type { %"class.std::tuple" }
%"class.std::tuple" = type { %"struct.std::_Tuple_impl" }
%"struct.std::_Tuple_impl" = type { %"struct.std::_Head_base.4" }
%"struct.std::_Head_base.4" = type { ptr }
%"struct.hermes::hbc::CompileFlags" = type { i8, i8, i8, i32, i32, i8, %"class.llvh::Optional", i8, i8, i8, i8, i8, i8, i32 }
%"class.llvh::Optional" = type { %"struct.llvh::optional_detail::OptionalStorage" }
%"struct.llvh::optional_detail::OptionalStorage" = type { %"struct.llvh::AlignedCharArrayUnion", i8 }
%"struct.llvh::AlignedCharArrayUnion" = type { %"struct.llvh::AlignedCharArray" }
%"struct.llvh::AlignedCharArray" = type { [1 x i8] }
%"class.hermes::vm::HandleBase" = type { ptr }
%"class.facebook::jsi::Object" = type { %"class.facebook::jsi::Pointer" }
%"class.facebook::jsi::Pointer" = type { ptr }
%"class.hermes::vm::Handle.314" = type { %"class.hermes::vm::HandleBase" }

; Function Attrs: mustprogress nounwind uwtable
define linkonce_odr void @_ZN8facebook3jsi7PointerC2EPNS0_7Runtime12PointerValueE(ptr noundef nonnull align 8 dereferenceable(8) %this, ptr noundef %ptr) unnamed_addr #1 comdat align 2 {
entry:
  %this.addr = alloca ptr, align 8
  %ptr.addr = alloca ptr, align 8
  store ptr %this, ptr %this.addr, align 8
  store ptr %ptr, ptr %ptr.addr, align 8
  %this1 = load ptr, ptr %this.addr, align 8
  %ptr_ = getelementptr inbounds %"class.facebook::jsi::Pointer", ptr %this1, i32 0, i32 0
  %0 = load ptr, ptr %ptr.addr, align 8
  store ptr %0, ptr %ptr_, align 8
  ret void
}

; Function Attrs: mustprogress nounwind uwtable
define linkonce_odr void @_ZN8facebook3jsi6ObjectCI2NS0_7PointerEEPNS0_7Runtime12PointerValueE(ptr noundef nonnull align 8 dereferenceable(8) %this, ptr noundef %0) unnamed_addr #1 comdat align 2 {
entry:
  %this.addr = alloca ptr, align 8
  %.addr = alloca ptr, align 8
  store ptr %this, ptr %this.addr, align 8
  store ptr %0, ptr %.addr, align 8
  %this1 = load ptr, ptr %this.addr, align 8
  %1 = load ptr, ptr %.addr, align 8
  call void @_ZN8facebook3jsi7PointerC2EPNS0_7Runtime12PointerValueE(ptr noundef nonnull align 8 dereferenceable(8) %this1, ptr noundef %1)
  ret void
}

; Function Attrs: mustprogress uwtable
define linkonce_odr void @_ZN8facebook3jsi7Runtime4makeINS0_6ObjectEEET_PNS1_12PointerValueE(ptr noalias sret(%"class.facebook::jsi::Object") align 8 %agg.result, ptr noundef %pv) #0 comdat align 2 {
entry:
  %result.ptr = alloca ptr, align 8
  %pv.addr = alloca ptr, align 8
  store ptr %agg.result, ptr %result.ptr, align 8
  store ptr %pv, ptr %pv.addr, align 8
  %0 = load ptr, ptr %pv.addr, align 8
  call void @_ZN8facebook3jsi6ObjectCI2NS0_7PointerEEPNS0_7Runtime12PointerValueE(ptr noundef nonnull align 8 dereferenceable(8) %agg.result, ptr noundef %0)
  ret void
}

; Function Attrs: mustprogress nounwind uwtable
define linkonce_odr hidden noundef ptr @_ZNK6hermes2vm10HandleBase9handleRefEv(ptr noundef nonnull align 8 dereferenceable(8) %this) #1 comdat align 2 {
entry:
  %this.addr = alloca ptr, align 8
  store ptr %this, ptr %this.addr, align 8
  %this1 = load ptr, ptr %this.addr, align 8
  %handle_ = getelementptr inbounds %"class.hermes::vm::HandleBase", ptr %this1, i32 0, i32 0
  %0 = load ptr, ptr %handle_, align 8
  ret ptr %0
}

; Function Attrs: mustprogress uwtable
define linkonce_odr hidden void @_ZN8facebook6hermes17HermesRuntimeImpl3addINS_3jsi6ObjectEEET_N6hermes2vm11HermesValueE(ptr noalias sret(%"class.facebook::jsi::Object") align 8 %agg.result, ptr noundef nonnull align 8 dereferenceable(184) %this, i64 %hv.coerce) #0 comdat align 2 {
entry:
  %result.ptr = alloca ptr, align 8
  %hv = alloca %"class.hermes::vm::HermesValue", align 8
  %this.addr = alloca ptr, align 8
  store ptr %agg.result, ptr %result.ptr, align 8
  %coerce.dive = getelementptr inbounds %"class.hermes::vm::HermesValue", ptr %hv, i32 0, i32 0
  store i64 %hv.coerce, ptr %coerce.dive, align 8
  store ptr %this, ptr %this.addr, align 8
  %this1 = load ptr, ptr %this.addr, align 8
  %hermesValues_ = getelementptr inbounds %"class.facebook::hermes::HermesRuntimeImpl", ptr %this1, i32 0, i32 2
  %call = call noundef nonnull align 8 dereferenceable(24) ptr @_ZN6hermes18ManagedChunkedListIN8facebook6hermes17HermesRuntimeImpl12ManagedValueINS_2vm17PinnedHermesValueEEELm16EE3addIJRNS5_11HermesValueEEEERS7_DpOT_(ptr noundef nonnull align 8 dereferenceable(48) %hermesValues_, ptr noundef nonnull align 8 dereferenceable(8) %hv)
  call void @_ZN8facebook3jsi7Runtime4makeINS0_6ObjectEEET_PNS1_12PointerValueE(ptr sret(%"class.facebook::jsi::Object") align 8 %agg.result, ptr noundef %call)
  ret void
}

; Function Attrs: mustprogress uwtable
define linkonce_odr hidden i64 @_ZNK6hermes2vm10HandleBase14getHermesValueEv(ptr noundef nonnull align 8 dereferenceable(8) %this) #0 comdat align 2 {
entry:
  %retval = alloca %"class.hermes::vm::HermesValue", align 8
  %this.addr = alloca ptr, align 8
  store ptr %this, ptr %this.addr, align 8
  %this1 = load ptr, ptr %this.addr, align 8
  %call = call noundef ptr @_ZNK6hermes2vm10HandleBase9handleRefEv(ptr noundef nonnull align 8 dereferenceable(8) %this1)
  call void @llvm.memcpy.p0.p0.i64(ptr align 8 %retval, ptr align 8 %call, i64 8, i1 false)
  %coerce.dive = getelementptr inbounds %"class.hermes::vm::HermesValue", ptr %retval, i32 0, i32 0
  %0 = load i64, ptr %coerce.dive, align 8
  ret i64 %0
}

; Function Attrs: mustprogress uwtable
define hidden void @_ZN8facebook6hermes17HermesRuntimeImpl6globalEv(ptr noalias sret(%"class.facebook::jsi::Object") align 8 %agg.result, ptr noundef nonnull align 8 dereferenceable(184) %this) unnamed_addr #0 align 2 {
entry:
  %result.ptr = alloca ptr, align 8
  %this.addr = alloca ptr, align 8
  %agg.tmp = alloca %"class.hermes::vm::HermesValue", align 8
  %ref.tmp = alloca %"class.hermes::vm::Handle.314", align 8
  store ptr %agg.result, ptr %result.ptr, align 8
  store ptr %this, ptr %this.addr, align 8
  %this1 = load ptr, ptr %this.addr, align 8
  %runtime_ = getelementptr inbounds %"class.facebook::hermes::HermesRuntimeImpl", ptr %this1, i32 0, i32 5
  %0 = load ptr, ptr %runtime_, align 8
  %call = call ptr @_ZN6hermes2vm7Runtime9getGlobalEv(ptr noundef nonnull align 8 dereferenceable(9832) %0)
  %coerce.dive = getelementptr inbounds %"class.hermes::vm::Handle.314", ptr %ref.tmp, i32 0, i32 0
  %coerce.dive2 = getelementptr inbounds %"class.hermes::vm::HandleBase", ptr %coerce.dive, i32 0, i32 0
  store ptr %call, ptr %coerce.dive2, align 8
  %call3 = call i64 @_ZNK6hermes2vm10HandleBase14getHermesValueEv(ptr noundef nonnull align 8 dereferenceable(8) %ref.tmp)
  %coerce.dive4 = getelementptr inbounds %"class.hermes::vm::HermesValue", ptr %agg.tmp, i32 0, i32 0
  store i64 %call3, ptr %coerce.dive4, align 8
  %coerce.dive5 = getelementptr inbounds %"class.hermes::vm::HermesValue", ptr %agg.tmp, i32 0, i32 0
  %1 = load i64, ptr %coerce.dive5, align 8
  call void @_ZN8facebook6hermes17HermesRuntimeImpl3addINS_3jsi6ObjectEEET_N6hermes2vm11HermesValueE(ptr sret(%"class.facebook::jsi::Object") align 8 %agg.result, ptr noundef nonnull align 8 dereferenceable(184) %this1, i64 %1)
  ret void
}