; Function Attrs: mustprogress uwtable
define hidden void @_ZN8facebook6hermes17HermesRuntimeImpl6globalEv(ptr noalias nocapture writeonly sret(%"class.facebook::jsi::Object") align 8 %agg.result, ptr noundef nonnull align 8 dereferenceable(184) %this) unnamed_addr #0 align 2 {
entry:
  %hv.i = alloca %"class.hermes::vm::HermesValue", align 8
  %runtime_ = getelementptr inbounds i8, ptr %this, i64 128
  %0 = load ptr, ptr %runtime_, align 8
  %call = tail call ptr @_ZN6hermes2vm7Runtime9getGlobalEv(ptr noundef nonnull align 8 dereferenceable(9832) %0)
  %retval.sroa.0.0.copyload.i = load i64, ptr %call, align 8
  tail call void @llvm.experimental.noalias.scope.decl(metadata !52)
  call void @llvm.lifetime.start.p0(i64 8, ptr nonnull %hv.i)
  store i64 %retval.sroa.0.0.copyload.i, ptr %hv.i, align 8, !noalias !52
  %hermesValues_.i = getelementptr inbounds i8, ptr %this, i64 16
  %call.i = call noundef nonnull align 8 dereferenceable(24) ptr @_ZN6hermes18ManagedChunkedListIN8facebook6hermes17HermesRuntimeImpl12ManagedValueINS_2vm17PinnedHermesValueEEELm16EE3addIJRNS5_11HermesValueEEEERS7_DpOT_(ptr noundef nonnull align 8 dereferenceable(48) %hermesValues_.i, ptr noundef nonnull align 8 dereferenceable(8) %hv.i), !noalias !52
  store ptr %call.i, ptr %agg.result, align 8, !alias.scope !55
  call void @llvm.lifetime.end.p0(i64 8, ptr nonnull %hv.i)
  ret void
}